; Function Attrs: mustprogress nofree norecurse nosync nounwind willreturn memory(read, inaccessiblemem: none) uwtable
define i32 @Msat_IntVecReadEntryLast(ptr noundef readonly captures(none) %0) local_unnamed_addr #10 {
  %2 = load ptr, ptr %0, align 8, !tbaa !11
  %3 = getelementptr inbounds nuw i8, ptr %0, i64 8
  %4 = load i32, ptr %3, align 8, !tbaa !3
  %5 = sext i32 %4 to i64
  %6 = getelementptr i32, ptr %2, i64 %5
  %7 = getelementptr i8, ptr %6, i64 -4
  %8 = load i32, ptr %7, align 4, !tbaa !12
  ret i32 %8
}